target datalayout = "e-m:e-p270:32:32-p271:32:32-p272:64:64-i64:64-i128:128-f80:128-n8:16:32:64-S128"
target triple = "x86_64-pc-linux-gnu"

%"class.google::LogMessageFatal" = type { %"class.google::LogMessage" }
%"class.google::LogMessage" = type { ptr, ptr, %"struct.google::LogMessageTime" }
%"struct.google::LogMessageTime" = type { %struct.tm, i64, i32, i64 }
%struct.tm = type { i32, i32, i32, i32, i32, i32, i32, i32, i32, i64, ptr }
%"class.ceres::internal::DenseCholesky" = type { ptr }
%"class.std::__cxx11::basic_string" = type { %"struct.std::__cxx11::basic_string<char>::_Alloc_hider", i64, %union.anon }
%"struct.std::__cxx11::basic_string<char>::_Alloc_hider" = type { ptr }
%union.anon = type { i64, [8 x i8] }
%"class.ceres::internal::LAPACKDenseCholesky" = type { %"class.ceres::internal::DenseCholesky", ptr, i32, i32 }

@.str = private unnamed_addr constant [129 x i8] c"generated/home/dtcxzyw/WorkSpace/Projects/compilers/llvm-opt-benchmark/bench/ceres/ceres-solver/internal/ceres/dense_cholesky.cc\00", align 1
@.str.5 = private unnamed_addr constant [9 x i8] c"Success.\00", align 1
@.str.6 = private unnamed_addr constant [44 x i8] c"Congratulations, you found a bug in Ceres. \00", align 1
@.str.7 = private unnamed_addr constant [19 x i8] c"Please report it. \00", align 1
@.str.8 = private unnamed_addr constant [29 x i8] c"LAPACK::dpotrf fatal error. \00", align 1
@.str.9 = private unnamed_addr constant [11 x i8] c"Argument: \00", align 1
@.str.10 = private unnamed_addr constant [13 x i8] c" is invalid.\00", align 1
@.str.11 = private unnamed_addr constant [90 x i8] c"LAPACK::dpotrf numerical failure. The leading minor of order %d is not positive definite.\00", align 1

; Function Attrs: mustprogress uwtable
define hidden noundef i32 @_ZN5ceres8internal19LAPACKDenseCholesky9FactorizeEiPdPNSt7__cxx1112basic_stringIcSt11char_traitsIcESaIcEEE(ptr noundef nonnull align 8 dereferenceable(24) %0, i32 noundef %1, ptr noundef %2, ptr noundef %3) unnamed_addr #2 align 2 personality ptr @__gxx_personality_v0 {
  %5 = alloca ptr, align 8
  %6 = alloca i32, align 4
  %7 = alloca ptr, align 8
  %8 = alloca ptr, align 8
  %9 = alloca i8, align 1
  %10 = alloca i32, align 4
  %11 = alloca %"class.google::LogMessageFatal", align 8
  %12 = alloca ptr, align 8
  %13 = alloca i32, align 4
  %14 = alloca %"class.std::__cxx11::basic_string", align 8
  store ptr %0, ptr %5, align 8
  store i32 %1, ptr %6, align 4
  store ptr %2, ptr %7, align 8
  store ptr %3, ptr %8, align 8
  %15 = load ptr, ptr %5, align 8
  %16 = load ptr, ptr %7, align 8
  %17 = getelementptr inbounds %"class.ceres::internal::LAPACKDenseCholesky", ptr %15, i32 0, i32 1
  store ptr %16, ptr %17, align 8
  %18 = load i32, ptr %6, align 4
  %19 = getelementptr inbounds %"class.ceres::internal::LAPACKDenseCholesky", ptr %15, i32 0, i32 2
  store i32 %18, ptr %19, align 8
  store i8 76, ptr %9, align 1
  store i32 0, ptr %10, align 4
  %20 = getelementptr inbounds %"class.ceres::internal::LAPACKDenseCholesky", ptr %15, i32 0, i32 2
  %21 = getelementptr inbounds %"class.ceres::internal::LAPACKDenseCholesky", ptr %15, i32 0, i32 1
  %22 = load ptr, ptr %21, align 8
  %23 = getelementptr inbounds %"class.ceres::internal::LAPACKDenseCholesky", ptr %15, i32 0, i32 2
  call void @dpotrf_(ptr noundef %9, ptr noundef %20, ptr noundef %22, ptr noundef %23, ptr noundef %10)
  %24 = load i32, ptr %10, align 4
  %25 = icmp slt i32 %24, 0
  br i1 %25, label %26, label %49

26:                                               ; preds = %4
  %27 = getelementptr inbounds %"class.ceres::internal::LAPACKDenseCholesky", ptr %15, i32 0, i32 3
  store i32 3, ptr %27, align 4
  call void @_ZN6google15LogMessageFatalC1EPKci(ptr noundef nonnull align 8 dereferenceable(96) %11, ptr noundef @.str, i32 noundef 217)
  %28 = invoke noundef nonnull align 8 dereferenceable(8) ptr @_ZN6google10LogMessage6streamEv(ptr noundef nonnull align 8 dereferenceable(96) %11)
          to label %29 unwind label %44

29:                                               ; preds = %26
  %30 = invoke noundef nonnull align 8 dereferenceable(8) ptr @_ZStlsISt11char_traitsIcEERSt13basic_ostreamIcT_ES5_PKc(ptr noundef nonnull align 8 dereferenceable(8) %28, ptr noundef @.str.6)
          to label %31 unwind label %44

31:                                               ; preds = %29
  %32 = invoke noundef nonnull align 8 dereferenceable(8) ptr @_ZStlsISt11char_traitsIcEERSt13basic_ostreamIcT_ES5_PKc(ptr noundef nonnull align 8 dereferenceable(8) %30, ptr noundef @.str.7)
          to label %33 unwind label %44

33:                                               ; preds = %31
  %34 = invoke noundef nonnull align 8 dereferenceable(8) ptr @_ZStlsISt11char_traitsIcEERSt13basic_ostreamIcT_ES5_PKc(ptr noundef nonnull align 8 dereferenceable(8) %32, ptr noundef @.str.8)
          to label %35 unwind label %44

35:                                               ; preds = %33
  %36 = invoke noundef nonnull align 8 dereferenceable(8) ptr @_ZStlsISt11char_traitsIcEERSt13basic_ostreamIcT_ES5_PKc(ptr noundef nonnull align 8 dereferenceable(8) %34, ptr noundef @.str.9)
          to label %37 unwind label %44

37:                                               ; preds = %35
  %38 = load i32, ptr %10, align 4
  %39 = sub nsw i32 0, %38
  %40 = invoke noundef nonnull align 8 dereferenceable(8) ptr @_ZNSolsEi(ptr noundef nonnull align 8 dereferenceable(8) %36, i32 noundef %39)
          to label %41 unwind label %44

41:                                               ; preds = %37
  %42 = invoke noundef nonnull align 8 dereferenceable(8) ptr @_ZStlsISt11char_traitsIcEERSt13basic_ostreamIcT_ES5_PKc(ptr noundef nonnull align 8 dereferenceable(8) %40, ptr noundef @.str.10)
          to label %43 unwind label %44

43:                                               ; preds = %41
  call void @_ZN6google15LogMessageFatalD1Ev(ptr noundef nonnull align 8 dereferenceable(96) %11) #18
  unreachable

44:                                               ; preds = %41, %37, %35, %33, %31, %29, %26
  %45 = landingpad { ptr, i32 }
          cleanup
  %46 = extractvalue { ptr, i32 } %45, 0
  store ptr %46, ptr %12, align 8
  %47 = extractvalue { ptr, i32 } %45, 1
  store i32 %47, ptr %13, align 4
  call void @_ZN6google15LogMessageFatalD1Ev(ptr noundef nonnull align 8 dereferenceable(96) %11) #18
  unreachable

48:                                               ; No predecessors!
  br label %65

49:                                               ; preds = %4
  %50 = load i32, ptr %10, align 4
  %51 = icmp sgt i32 %50, 0
  br i1 %51, label %52, label %57

52:                                               ; preds = %49
  %53 = getelementptr inbounds %"class.ceres::internal::LAPACKDenseCholesky", ptr %15, i32 0, i32 3
  store i32 2, ptr %53, align 4
  %54 = load i32, ptr %10, align 4
  call void (ptr, ptr, ...) @_ZN5ceres8internal12StringPrintfB5cxx11EPKcz(ptr dead_on_unwind writable sret(%"class.std::__cxx11::basic_string") align 8 %14, ptr noundef @.str.11, i32 noundef %54)
  %55 = load ptr, ptr %8, align 8
  %56 = call noundef nonnull align 8 dereferenceable(32) ptr @_ZNSt7__cxx1112basic_stringIcSt11char_traitsIcESaIcEEaSEOS4_(ptr noundef nonnull align 8 dereferenceable(32) %55, ptr noundef nonnull align 8 dereferenceable(32) %14) #14
  call void @_ZNSt7__cxx1112basic_stringIcSt11char_traitsIcESaIcEED1Ev(ptr noundef nonnull align 8 dereferenceable(32) %14) #14
  br label %61

57:                                               ; preds = %49
  %58 = getelementptr inbounds %"class.ceres::internal::LAPACKDenseCholesky", ptr %15, i32 0, i32 3
  store i32 0, ptr %58, align 4
  %59 = load ptr, ptr %8, align 8
  %60 = call noundef nonnull align 8 dereferenceable(32) ptr @_ZNSt7__cxx1112basic_stringIcSt11char_traitsIcESaIcEEaSEPKc(ptr noundef nonnull align 8 dereferenceable(32) %59, ptr noundef @.str.5)
  br label %61

61:                                               ; preds = %57, %52
  br label %62

62:                                               ; preds = %61
  %63 = getelementptr inbounds %"class.ceres::internal::LAPACKDenseCholesky", ptr %15, i32 0, i32 3
  %64 = load i32, ptr %63, align 4
  ret i32 %64

65:                                               ; preds = %48
  %66 = load ptr, ptr %12, align 8
  %67 = load i32, ptr %13, align 4
  %68 = insertvalue { ptr, i32 } poison, ptr %66, 0
  %69 = insertvalue { ptr, i32 } %68, i32 %67, 1
  resume { ptr, i32 } %69
}