; Function Attrs: mustprogress uwtable
define hidden noundef i32 @_ZN5ceres8internal19LAPACKDenseCholesky9FactorizeEiPdPNSt7__cxx1112basic_stringIcSt11char_traitsIcESaIcEEE(ptr noundef nonnull align 8 dereferenceable(24) %0, i32 noundef %1, ptr noundef %2, ptr noundef %3) unnamed_addr #3 align 2 personality ptr @__gxx_personality_v0 {
  %5 = alloca i8, align 1
  %6 = alloca i32, align 4
  %7 = alloca %"class.google::LogMessageFatal", align 8
  %8 = alloca %"class.std::__cxx11::basic_string", align 8
  %9 = getelementptr inbounds i8, ptr %0, i64 8
  store ptr %2, ptr %9, align 8
  %10 = getelementptr inbounds i8, ptr %0, i64 16
  store i32 %1, ptr %10, align 8
  store i8 76, ptr %5, align 1
  store i32 0, ptr %6, align 4
  call void @dpotrf_(ptr noundef nonnull %5, ptr noundef nonnull %10, ptr noundef %2, ptr noundef nonnull %10, ptr noundef nonnull %6)
  %11 = load i32, ptr %6, align 4
  %12 = icmp slt i32 %11, 0
  br i1 %12, label %13, label %33

13:                                               ; preds = %4
  %14 = getelementptr inbounds i8, ptr %0, i64 20
  store i32 3, ptr %14, align 4
  call void @_ZN6google15LogMessageFatalC1EPKci(ptr noundef nonnull align 8 dereferenceable(96) %7, ptr noundef nonnull @.str, i32 noundef 217)
  %15 = invoke noundef nonnull align 8 dereferenceable(8) ptr @_ZN6google10LogMessage6streamEv(ptr noundef nonnull align 8 dereferenceable(96) %7)
          to label %16 unwind label %31

16:                                               ; preds = %13
  %17 = invoke noundef nonnull align 8 dereferenceable(8) ptr @_ZStlsISt11char_traitsIcEERSt13basic_ostreamIcT_ES5_PKc(ptr noundef nonnull align 8 dereferenceable(8) %15, ptr noundef nonnull @.str.6)
          to label %18 unwind label %31

18:                                               ; preds = %16
  %19 = invoke noundef nonnull align 8 dereferenceable(8) ptr @_ZStlsISt11char_traitsIcEERSt13basic_ostreamIcT_ES5_PKc(ptr noundef nonnull align 8 dereferenceable(8) %17, ptr noundef nonnull @.str.7)
          to label %20 unwind label %31

20:                                               ; preds = %18
  %21 = invoke noundef nonnull align 8 dereferenceable(8) ptr @_ZStlsISt11char_traitsIcEERSt13basic_ostreamIcT_ES5_PKc(ptr noundef nonnull align 8 dereferenceable(8) %19, ptr noundef nonnull @.str.8)
          to label %22 unwind label %31

22:                                               ; preds = %20
  %23 = invoke noundef nonnull align 8 dereferenceable(8) ptr @_ZStlsISt11char_traitsIcEERSt13basic_ostreamIcT_ES5_PKc(ptr noundef nonnull align 8 dereferenceable(8) %21, ptr noundef nonnull @.str.9)
          to label %24 unwind label %31

24:                                               ; preds = %22
  %25 = load i32, ptr %6, align 4
  %26 = sub nsw i32 0, %25
  %27 = invoke noundef nonnull align 8 dereferenceable(8) ptr @_ZNSolsEi(ptr noundef nonnull align 8 dereferenceable(8) %23, i32 noundef %26)
          to label %28 unwind label %31

28:                                               ; preds = %24
  %29 = invoke noundef nonnull align 8 dereferenceable(8) ptr @_ZStlsISt11char_traitsIcEERSt13basic_ostreamIcT_ES5_PKc(ptr noundef nonnull align 8 dereferenceable(8) %27, ptr noundef nonnull @.str.10)
          to label %30 unwind label %31

30:                                               ; preds = %28
  call void @_ZN6google15LogMessageFatalD1Ev(ptr noundef nonnull align 8 dereferenceable(96) %7) #23
  unreachable

31:                                               ; preds = %28, %24, %22, %20, %18, %16, %13
  %32 = landingpad { ptr, i32 }
          cleanup
  call void @_ZN6google15LogMessageFatalD1Ev(ptr noundef nonnull align 8 dereferenceable(96) %7) #23
  unreachable

33:                                               ; preds = %4
  %.not = icmp eq i32 %11, 0
  %34 = getelementptr inbounds i8, ptr %0, i64 20
  br i1 %.not, label %37, label %35

35:                                               ; preds = %33
  store i32 2, ptr %34, align 4
  call void (ptr, ptr, ...) @_ZN5ceres8internal12StringPrintfB5cxx11EPKcz(ptr dead_on_unwind nonnull writable sret(%"class.std::__cxx11::basic_string") align 8 %8, ptr noundef nonnull @.str.11, i32 noundef %11)
  %36 = call noundef nonnull align 8 dereferenceable(32) ptr @_ZNSt7__cxx1112basic_stringIcSt11char_traitsIcESaIcEEaSEOS4_(ptr noundef nonnull align 8 dereferenceable(32) %3, ptr noundef nonnull align 8 dereferenceable(32) %8) #26
  call void @_ZNSt7__cxx1112basic_stringIcSt11char_traitsIcESaIcEED1Ev(ptr noundef nonnull align 8 dereferenceable(32) %8) #26
  br label %39

37:                                               ; preds = %33
  store i32 0, ptr %34, align 4
  %38 = call noundef nonnull align 8 dereferenceable(32) ptr @_ZNSt7__cxx1112basic_stringIcSt11char_traitsIcESaIcEEaSEPKc(ptr noundef nonnull align 8 dereferenceable(32) %3, ptr noundef nonnull @.str.5)
  br label %39

39:                                               ; preds = %35, %37
  %40 = getelementptr inbounds i8, ptr %0, i64 20
  %41 = load i32, ptr %40, align 4
  ret i32 %41
}